target datalayout = "e-m:e-p270:32:32-p271:32:32-p272:64:64-i64:64-i128:128-f80:128-n8:16:32:64-S128"
target triple = "x86_64-pc-linux-gnu"

; Function Attrs: nounwind uwtable
define internal void @Int16_To_UInt8(ptr noundef %0, i32 noundef %1, ptr noundef %2, i32 noundef %3, i32 noundef %4, ptr noundef %5) #0 {
  %7 = alloca ptr, align 8
  %8 = alloca i32, align 4
  %9 = alloca ptr, align 8
  %10 = alloca i32, align 4
  %11 = alloca i32, align 4
  %12 = alloca ptr, align 8
  %13 = alloca ptr, align 8
  %14 = alloca ptr, align 8
  store ptr %0, ptr %7, align 8, !tbaa !70
  store i32 %1, ptr %8, align 4, !tbaa !71
  store ptr %2, ptr %9, align 8, !tbaa !70
  store i32 %3, ptr %10, align 4, !tbaa !71
  store i32 %4, ptr %11, align 4, !tbaa !71
  store ptr %5, ptr %12, align 8, !tbaa !73
  call void @llvm.lifetime.start.p0(i64 8, ptr %13) #4
  %15 = load ptr, ptr %9, align 8, !tbaa !70
  store ptr %15, ptr %13, align 8, !tbaa !94
  call void @llvm.lifetime.start.p0(i64 8, ptr %14) #4
  %16 = load ptr, ptr %7, align 8, !tbaa !70
  store ptr %16, ptr %14, align 8, !tbaa !87
  br label %17

17:                                               ; preds = %21, %6
  %18 = load i32, ptr %11, align 4, !tbaa !71
  %19 = add i32 %18, -1
  store i32 %19, ptr %11, align 4, !tbaa !71
  %20 = icmp ne i32 %18, 0
  br i1 %20, label %21, label %37

21:                                               ; preds = %17
  %22 = load ptr, ptr %13, align 8, !tbaa !94
  %23 = load i16, ptr %22, align 2, !tbaa !96
  %24 = sext i16 %23 to i32
  %25 = ashr i32 %24, 8
  %26 = add nsw i32 %25, 128
  %27 = trunc i32 %26 to i8
  %28 = load ptr, ptr %14, align 8, !tbaa !87
  store i8 %27, ptr %28, align 1, !tbaa !89
  %29 = load i32, ptr %10, align 4, !tbaa !71
  %30 = load ptr, ptr %13, align 8, !tbaa !94
  %31 = sext i32 %29 to i64
  %32 = getelementptr inbounds i16, ptr %30, i64 %31
  store ptr %32, ptr %13, align 8, !tbaa !94
  %33 = load i32, ptr %8, align 4, !tbaa !71
  %34 = load ptr, ptr %14, align 8, !tbaa !87
  %35 = sext i32 %33 to i64
  %36 = getelementptr inbounds i8, ptr %34, i64 %35
  store ptr %36, ptr %14, align 8, !tbaa !87
  br label %17, !llvm.loop !130

37:                                               ; preds = %17
  call void @llvm.lifetime.end.p0(i64 8, ptr %14) #4
  call void @llvm.lifetime.end.p0(i64 8, ptr %13) #4
  ret void
}